target datalayout = "e-m:e-p270:32:32-p271:32:32-p272:64:64-i64:64-i128:128-f80:128-n8:16:32:64-S128"
target triple = "x86_64-pc-linux-gnu"

%"class.clang::QualType" = type { %"class.llvm::PointerIntPair" }
%"class.llvm::PointerIntPair" = type { %"struct.llvm::detail::PunnedPointer" }
%"struct.llvm::detail::PunnedPointer" = type { [8 x i8] }
%"class.llvm::FoldingSetBase::Node" = type { ptr }
%"class.llvm::ArrayRef.1068" = type { ptr, i64 }
%"class.clang::Type" = type { %"class.clang::ExtQualsTypeCommonBase", %union.anon.1005, [8 x i8] }
%"class.clang::ExtQualsTypeCommonBase" = type { ptr, %"class.clang::QualType" }
%union.anon.1005 = type { %"class.clang::Type::FunctionTypeBitfields" }
%"class.clang::Type::FunctionTypeBitfields" = type { i64 }
%"class.clang::Type.base" = type { %"class.clang::ExtQualsTypeCommonBase", %union.anon.1005 }
%"class.clang::ObjCObjectType" = type { %"class.clang::Type.base", %"class.clang::QualType", %"class.llvm::PointerIntPair.1042", [8 x i8] }
%"class.llvm::PointerIntPair.1042" = type { %"struct.llvm::detail::PunnedPointer.1043" }
%"struct.llvm::detail::PunnedPointer.1043" = type { [8 x i8] }
%"class.clang::ObjCObjectTypeImpl" = type { %"class.clang::ObjCObjectType.base", %"class.llvm::FoldingSetBase::Node" }
%"class.clang::ObjCObjectType.base" = type { %"class.clang::Type.base", %"class.clang::QualType", %"class.llvm::PointerIntPair.1042" }

; Function Attrs: mustprogress nounwind uwtable
define linkonce_odr hidden noundef i64 @_ZNK4llvm6detail13PunnedPointerINS_12PointerUnionIJPKN5clang4TypeEPKNS3_8ExtQualsEEEEE5asIntEv(ptr noundef nonnull align 8 dereferenceable(8) %0) #0 comdat align 2 {
  %2 = alloca ptr, align 8
  %3 = alloca i64, align 8
  store ptr %0, ptr %2, align 8
  %4 = load ptr, ptr %2, align 8
  store i64 0, ptr %3, align 8
  %5 = getelementptr inbounds nuw %"struct.llvm::detail::PunnedPointer", ptr %4, i32 0, i32 0
  %6 = getelementptr inbounds [8 x i8], ptr %5, i64 0, i64 0
  call void @llvm.memcpy.p0.p0.i64(ptr align 8 %3, ptr align 8 %6, i64 8, i1 false)
  %7 = load i64, ptr %3, align 8
  ret i64 %7
}

; Function Attrs: mustprogress nounwind uwtable
define linkonce_odr hidden noundef ptr @_ZN5clang14ObjCObjectType17getTypeArgStorageEv(ptr noundef nonnull align 16 dereferenceable(40) %0) #0 comdat align 2 {
  %2 = alloca ptr, align 8
  store ptr %0, ptr %2, align 8
  %3 = load ptr, ptr %2, align 8
  %4 = getelementptr inbounds %"class.clang::ObjCObjectTypeImpl", ptr %3, i64 1
  ret ptr %4
}

; Function Attrs: mustprogress nounwind uwtable
define linkonce_odr hidden noundef ptr @_ZNK4llvm14PointerIntPairINS_12PointerUnionIJPKN5clang4TypeEPKNS2_8ExtQualsEEEELj3EjNS_21PointerLikeTypeTraitsIS9_EENS_18PointerIntPairInfoIS9_Lj3ESB_EEE14getOpaqueValueEv(ptr noundef nonnull align 8 dereferenceable(8) %0) #0 comdat align 2 {
  %2 = alloca ptr, align 8
  store ptr %0, ptr %2, align 8
  %3 = load ptr, ptr %2, align 8
  %4 = getelementptr inbounds nuw %"class.llvm::PointerIntPair", ptr %3, i32 0, i32 0
  %5 = call noundef i64 @_ZNK4llvm6detail13PunnedPointerINS_12PointerUnionIJPKN5clang4TypeEPKNS3_8ExtQualsEEEEE5asIntEv(ptr noundef nonnull align 8 dereferenceable(8) %4)
  %6 = inttoptr i64 %5 to ptr
  ret ptr %6
}

; Function Attrs: mustprogress nounwind uwtable
define internal noundef zeroext i1 @_ZN5clang19RecursiveASTVisitorIN12_GLOBAL__N_122EmptyStatementsRemoverEE9VisitTypeEPNS_4TypeE(ptr noundef nonnull align 1 dereferenceable(1) %0, ptr noundef %1) #0 align 2 {
  %3 = alloca ptr, align 8
  %4 = alloca ptr, align 8
  store ptr %0, ptr %3, align 8
  store ptr %1, ptr %4, align 8
  ret i1 true
}

; Function Attrs: mustprogress nounwind uwtable
define linkonce_odr hidden void @_ZN4llvm8ArrayRefIN5clang8QualTypeEEC2EPKS2_m(ptr noundef nonnull align 8 dereferenceable(16) %0, ptr noundef %1, i64 noundef %2) unnamed_addr #0 comdat align 2 {
  %4 = alloca ptr, align 8
  %5 = alloca ptr, align 8
  %6 = alloca i64, align 8
  store ptr %0, ptr %4, align 8
  store ptr %1, ptr %5, align 8
  store i64 %2, ptr %6, align 8
  %7 = load ptr, ptr %4, align 8
  %8 = getelementptr inbounds nuw %"class.llvm::ArrayRef.1068", ptr %7, i32 0, i32 0
  %9 = load ptr, ptr %5, align 8
  store ptr %9, ptr %8, align 8
  %10 = getelementptr inbounds nuw %"class.llvm::ArrayRef.1068", ptr %7, i32 0, i32 1
  %11 = load i64, ptr %6, align 8
  store i64 %11, ptr %10, align 8
  ret void
}

; Function Attrs: mustprogress nounwind uwtable
define linkonce_odr hidden noundef ptr @_ZNK5clang14ObjCObjectType17getTypeArgStorageEv(ptr noundef nonnull align 16 dereferenceable(40) %0) #0 comdat align 2 {
  %2 = alloca ptr, align 8
  store ptr %0, ptr %2, align 8
  %3 = load ptr, ptr %2, align 8
  %4 = call noundef ptr @_ZN5clang14ObjCObjectType17getTypeArgStorageEv(ptr noundef nonnull align 16 dereferenceable(40) %3)
  ret ptr %4
}

; Function Attrs: mustprogress nounwind uwtable
define linkonce_odr hidden noundef ptr @_ZNK5clang8QualType12getCommonPtrEv(ptr noundef nonnull align 8 dereferenceable(8) %0) #0 comdat align 2 {
  %2 = alloca ptr, align 8
  %3 = alloca i64, align 8
  store ptr %0, ptr %2, align 8
  %4 = load ptr, ptr %2, align 8
  %5 = getelementptr inbounds nuw %"class.clang::QualType", ptr %4, i32 0, i32 0
  %6 = call noundef ptr @_ZNK4llvm14PointerIntPairINS_12PointerUnionIJPKN5clang4TypeEPKNS2_8ExtQualsEEEELj3EjNS_21PointerLikeTypeTraitsIS9_EENS_18PointerIntPairInfoIS9_Lj3ESB_EEE14getOpaqueValueEv(ptr noundef nonnull align 8 dereferenceable(8) %5)
  %7 = ptrtoint ptr %6 to i64
  store i64 %7, ptr %3, align 8
  %8 = load i64, ptr %3, align 8
  %9 = and i64 %8, -16
  store i64 %9, ptr %3, align 8
  %10 = load i64, ptr %3, align 8
  %11 = inttoptr i64 %10 to ptr
  ret ptr %11
}

; Function Attrs: mustprogress nounwind uwtable
define internal noundef zeroext i1 @_ZN5clang19RecursiveASTVisitorIN12_GLOBAL__N_122EmptyStatementsRemoverEE19VisitObjCObjectTypeEPNS_14ObjCObjectTypeE(ptr noundef nonnull align 1 dereferenceable(1) %0, ptr noundef %1) #0 align 2 {
  %3 = alloca ptr, align 8
  %4 = alloca ptr, align 8
  store ptr %0, ptr %3, align 8
  store ptr %1, ptr %4, align 8
  ret i1 true
}

; Function Attrs: mustprogress nounwind uwtable
define internal noundef zeroext i1 @_ZN5clang19RecursiveASTVisitorIN12_GLOBAL__N_122EmptyStatementsRemoverEE14WalkUpFromTypeEPNS_4TypeE(ptr noundef nonnull align 1 dereferenceable(1) %0, ptr noundef %1) #0 align 2 {
  %3 = alloca ptr, align 8
  %4 = alloca ptr, align 8
  store ptr %0, ptr %3, align 8
  store ptr %1, ptr %4, align 8
  %5 = load ptr, ptr %3, align 8
  %6 = call noundef nonnull align 8 dereferenceable(8) ptr @_ZN5clang19RecursiveASTVisitorIN12_GLOBAL__N_122EmptyStatementsRemoverEE10getDerivedEv(ptr noundef nonnull align 1 dereferenceable(1) %5)
  %7 = load ptr, ptr %4, align 8
  %8 = call noundef zeroext i1 @_ZN5clang19RecursiveASTVisitorIN12_GLOBAL__N_122EmptyStatementsRemoverEE9VisitTypeEPNS_4TypeE(ptr noundef nonnull align 1 dereferenceable(1) %6, ptr noundef %7)
  ret i1 %8
}

; Function Attrs: mustprogress nounwind uwtable
define linkonce_odr hidden noundef ptr @_ZNK4llvm8ArrayRefIN5clang8QualTypeEE3endEv(ptr noundef nonnull align 8 dereferenceable(16) %0) #0 comdat align 2 {
  %2 = alloca ptr, align 8
  store ptr %0, ptr %2, align 8
  %3 = load ptr, ptr %2, align 8
  %4 = getelementptr inbounds nuw %"class.llvm::ArrayRef.1068", ptr %3, i32 0, i32 0
  %5 = load ptr, ptr %4, align 8
  %6 = getelementptr inbounds nuw %"class.llvm::ArrayRef.1068", ptr %3, i32 0, i32 1
  %7 = load i64, ptr %6, align 8
  %8 = getelementptr inbounds %"class.clang::QualType", ptr %5, i64 %7
  ret ptr %8
}

; Function Attrs: mustprogress nounwind uwtable
define linkonce_odr hidden noundef ptr @_ZNK4llvm8ArrayRefIN5clang8QualTypeEE5beginEv(ptr noundef nonnull align 8 dereferenceable(16) %0) #0 comdat align 2 {
  %2 = alloca ptr, align 8
  store ptr %0, ptr %2, align 8
  %3 = load ptr, ptr %2, align 8
  %4 = getelementptr inbounds nuw %"class.llvm::ArrayRef.1068", ptr %3, i32 0, i32 0
  %5 = load ptr, ptr %4, align 8
  ret ptr %5
}

; Function Attrs: mustprogress nounwind uwtable
define linkonce_odr hidden { ptr, i64 } @_ZNK5clang14ObjCObjectType20getTypeArgsAsWrittenEv(ptr noundef nonnull align 16 dereferenceable(40) %0) #0 comdat align 2 {
  %2 = alloca %"class.llvm::ArrayRef.1068", align 8
  %3 = alloca ptr, align 8
  store ptr %0, ptr %3, align 8
  %4 = load ptr, ptr %3, align 8
  %5 = call noundef ptr @_ZNK5clang14ObjCObjectType17getTypeArgStorageEv(ptr noundef nonnull align 16 dereferenceable(40) %4)
  %6 = getelementptr inbounds nuw %"class.clang::Type", ptr %4, i32 0, i32 1
  %7 = load i32, ptr %6, align 16
  %8 = lshr i32 %7, 19
  %9 = and i32 %8, 127
  %10 = zext i32 %9 to i64
  call void @_ZN4llvm8ArrayRefIN5clang8QualTypeEEC2EPKS2_m(ptr noundef nonnull align 8 dereferenceable(16) %2, ptr noundef %5, i64 noundef %10)
  %11 = load { ptr, i64 }, ptr %2, align 8
  ret { ptr, i64 } %11
}

; Function Attrs: mustprogress nounwind uwtable
define linkonce_odr hidden noundef ptr @_ZNK5clang8QualType10getTypePtrEv(ptr noundef nonnull align 8 dereferenceable(8) %0) #0 comdat align 2 {
  %2 = alloca ptr, align 8
  store ptr %0, ptr %2, align 8
  %3 = load ptr, ptr %2, align 8
  %4 = call noundef ptr @_ZNK5clang8QualType12getCommonPtrEv(ptr noundef nonnull align 8 dereferenceable(8) %3)
  %5 = getelementptr inbounds nuw %"class.clang::ExtQualsTypeCommonBase", ptr %4, i32 0, i32 0
  %6 = load ptr, ptr %5, align 8
  ret ptr %6
}

; Function Attrs: mustprogress nounwind uwtable
define linkonce_odr hidden i64 @_ZNK5clang14ObjCObjectType11getBaseTypeEv(ptr noundef nonnull align 16 dereferenceable(40) %0) #0 comdat align 2 {
  %2 = alloca %"class.clang::QualType", align 8
  %3 = alloca ptr, align 8
  store ptr %0, ptr %3, align 8
  %4 = load ptr, ptr %3, align 8
  %5 = getelementptr inbounds nuw %"class.clang::ObjCObjectType", ptr %4, i32 0, i32 1
  call void @llvm.memcpy.p0.p0.i64(ptr align 8 %2, ptr align 8 %5, i64 8, i1 false)
  %6 = getelementptr inbounds nuw %"class.clang::QualType", ptr %2, i32 0, i32 0
  %7 = getelementptr inbounds nuw %"class.llvm::PointerIntPair", ptr %6, i32 0, i32 0
  %8 = getelementptr inbounds nuw %"struct.llvm::detail::PunnedPointer", ptr %7, i32 0, i32 0
  %9 = load i64, ptr %8, align 8
  ret i64 %9
}

; Function Attrs: mustprogress nounwind uwtable
define internal noundef zeroext i1 @_ZN5clang19RecursiveASTVisitorIN12_GLOBAL__N_122EmptyStatementsRemoverEE24WalkUpFromObjCObjectTypeEPNS_14ObjCObjectTypeE(ptr noundef nonnull align 1 dereferenceable(1) %0, ptr noundef %1) #0 align 2 {
  %3 = alloca i1, align 1
  %4 = alloca ptr, align 8
  %5 = alloca ptr, align 8
  store ptr %0, ptr %4, align 8
  store ptr %1, ptr %5, align 8
  %6 = load ptr, ptr %4, align 8
  br label %7

7:                                                ; preds = %2
  %8 = call noundef nonnull align 8 dereferenceable(8) ptr @_ZN5clang19RecursiveASTVisitorIN12_GLOBAL__N_122EmptyStatementsRemoverEE10getDerivedEv(ptr noundef nonnull align 1 dereferenceable(1) %6)
  %9 = load ptr, ptr %5, align 8
  %10 = call noundef zeroext i1 @_ZN5clang19RecursiveASTVisitorIN12_GLOBAL__N_122EmptyStatementsRemoverEE14WalkUpFromTypeEPNS_4TypeE(ptr noundef nonnull align 1 dereferenceable(1) %8, ptr noundef %9)
  br i1 %10, label %12, label %11

11:                                               ; preds = %7
  store i1 false, ptr %3, align 1
  br label %21

12:                                               ; preds = %7
  br label %13

13:                                               ; preds = %12
  br label %14

14:                                               ; preds = %13
  %15 = call noundef nonnull align 8 dereferenceable(8) ptr @_ZN5clang19RecursiveASTVisitorIN12_GLOBAL__N_122EmptyStatementsRemoverEE10getDerivedEv(ptr noundef nonnull align 1 dereferenceable(1) %6)
  %16 = load ptr, ptr %5, align 8
  %17 = call noundef zeroext i1 @_ZN5clang19RecursiveASTVisitorIN12_GLOBAL__N_122EmptyStatementsRemoverEE19VisitObjCObjectTypeEPNS_14ObjCObjectTypeE(ptr noundef nonnull align 1 dereferenceable(1) %15, ptr noundef %16)
  br i1 %17, label %19, label %18

18:                                               ; preds = %14
  store i1 false, ptr %3, align 1
  br label %21

19:                                               ; preds = %14
  br label %20

20:                                               ; preds = %19
  store i1 true, ptr %3, align 1
  br label %21

21:                                               ; preds = %20, %18, %11
  %22 = load i1, ptr %3, align 1
  ret i1 %22
}

; Function Attrs: mustprogress nounwind uwtable
define internal noundef zeroext i1 @_ZNK5clang19RecursiveASTVisitorIN12_GLOBAL__N_122EmptyStatementsRemoverEE23shouldTraversePostOrderEv(ptr noundef nonnull align 1 dereferenceable(1) %0) #0 align 2 {
  %2 = alloca ptr, align 8
  store ptr %0, ptr %2, align 8
  ret i1 false
}

; Function Attrs: mustprogress nounwind uwtable
define internal noundef nonnull align 8 dereferenceable(8) ptr @_ZN5clang19RecursiveASTVisitorIN12_GLOBAL__N_122EmptyStatementsRemoverEE10getDerivedEv(ptr noundef nonnull align 1 dereferenceable(1) %0) #0 align 2 {
  %2 = alloca ptr, align 8
  store ptr %0, ptr %2, align 8
  %3 = load ptr, ptr %2, align 8
  ret ptr %3
}

; Function Attrs: mustprogress nounwind uwtable
define internal noundef zeroext i1 @_ZN5clang19RecursiveASTVisitorIN12_GLOBAL__N_122EmptyStatementsRemoverEE22TraverseObjCObjectTypeEPNS_14ObjCObjectTypeE(ptr noundef nonnull align 1 dereferenceable(1) %0, ptr noundef %1) #0 align 2 {
  %3 = alloca i1, align 1
  %4 = alloca ptr, align 8
  %5 = alloca ptr, align 8
  %6 = alloca %"class.clang::QualType", align 8
  %7 = alloca %"class.clang::QualType", align 8
  %8 = alloca ptr, align 8
  %9 = alloca %"class.llvm::ArrayRef.1068", align 8
  %10 = alloca ptr, align 8
  %11 = alloca ptr, align 8
  %12 = alloca %"class.clang::QualType", align 8
  %13 = alloca %"class.clang::QualType", align 8
  store ptr %0, ptr %4, align 8
  store ptr %1, ptr %5, align 8
  %14 = load ptr, ptr %4, align 8
  %15 = call noundef nonnull align 8 dereferenceable(8) ptr @_ZN5clang19RecursiveASTVisitorIN12_GLOBAL__N_122EmptyStatementsRemoverEE10getDerivedEv(ptr noundef nonnull align 1 dereferenceable(1) %14)
  %16 = call noundef zeroext i1 @_ZNK5clang19RecursiveASTVisitorIN12_GLOBAL__N_122EmptyStatementsRemoverEE23shouldTraversePostOrderEv(ptr noundef nonnull align 1 dereferenceable(1) %15)
  br i1 %16, label %25, label %17

17:                                               ; preds = %2
  br label %18

18:                                               ; preds = %17
  %19 = call noundef nonnull align 8 dereferenceable(8) ptr @_ZN5clang19RecursiveASTVisitorIN12_GLOBAL__N_122EmptyStatementsRemoverEE10getDerivedEv(ptr noundef nonnull align 1 dereferenceable(1) %14)
  %20 = load ptr, ptr %5, align 8
  %21 = call noundef zeroext i1 @_ZN5clang19RecursiveASTVisitorIN12_GLOBAL__N_122EmptyStatementsRemoverEE24WalkUpFromObjCObjectTypeEPNS_14ObjCObjectTypeE(ptr noundef nonnull align 1 dereferenceable(1) %19, ptr noundef %20)
  br i1 %21, label %23, label %22

22:                                               ; preds = %18
  store i1 false, ptr %3, align 1
  br label %92

23:                                               ; preds = %18
  br label %24

24:                                               ; preds = %23
  br label %25

25:                                               ; preds = %24, %2
  %26 = load ptr, ptr %5, align 8
  %27 = call i64 @_ZNK5clang14ObjCObjectType11getBaseTypeEv(ptr noundef nonnull align 16 dereferenceable(40) %26)
  %28 = getelementptr inbounds nuw %"class.clang::QualType", ptr %6, i32 0, i32 0
  %29 = getelementptr inbounds nuw %"class.llvm::PointerIntPair", ptr %28, i32 0, i32 0
  %30 = getelementptr inbounds nuw %"struct.llvm::detail::PunnedPointer", ptr %29, i32 0, i32 0
  store i64 %27, ptr %30, align 8
  %31 = call noundef ptr @_ZNK5clang8QualType10getTypePtrEv(ptr noundef nonnull align 8 dereferenceable(8) %6)
  %32 = load ptr, ptr %5, align 8
  %33 = icmp ne ptr %31, %32
  br i1 %33, label %34, label %50

34:                                               ; preds = %25
  br label %35

35:                                               ; preds = %34
  %36 = call noundef nonnull align 8 dereferenceable(8) ptr @_ZN5clang19RecursiveASTVisitorIN12_GLOBAL__N_122EmptyStatementsRemoverEE10getDerivedEv(ptr noundef nonnull align 1 dereferenceable(1) %14)
  %37 = load ptr, ptr %5, align 8
  %38 = call i64 @_ZNK5clang14ObjCObjectType11getBaseTypeEv(ptr noundef nonnull align 16 dereferenceable(40) %37)
  %39 = getelementptr inbounds nuw %"class.clang::QualType", ptr %7, i32 0, i32 0
  %40 = getelementptr inbounds nuw %"class.llvm::PointerIntPair", ptr %39, i32 0, i32 0
  %41 = getelementptr inbounds nuw %"struct.llvm::detail::PunnedPointer", ptr %40, i32 0, i32 0
  store i64 %38, ptr %41, align 8
  %42 = getelementptr inbounds nuw %"class.clang::QualType", ptr %7, i32 0, i32 0
  %43 = getelementptr inbounds nuw %"class.llvm::PointerIntPair", ptr %42, i32 0, i32 0
  %44 = getelementptr inbounds nuw %"struct.llvm::detail::PunnedPointer", ptr %43, i32 0, i32 0
  %45 = load i64, ptr %44, align 8
  %46 = call noundef zeroext i1 @_ZN5clang19RecursiveASTVisitorIN12_GLOBAL__N_122EmptyStatementsRemoverEE12TraverseTypeENS_8QualTypeE(ptr noundef nonnull align 1 dereferenceable(1) %36, i64 %45)
  br i1 %46, label %48, label %47

47:                                               ; preds = %35
  store i1 false, ptr %3, align 1
  br label %92

48:                                               ; preds = %35
  br label %49

49:                                               ; preds = %48
  br label %50

50:                                               ; preds = %49, %25
  %51 = load ptr, ptr %5, align 8
  %52 = call { ptr, i64 } @_ZNK5clang14ObjCObjectType20getTypeArgsAsWrittenEv(ptr noundef nonnull align 16 dereferenceable(40) %51)
  %53 = getelementptr inbounds nuw { ptr, i64 }, ptr %9, i32 0, i32 0
  %54 = extractvalue { ptr, i64 } %52, 0
  store ptr %54, ptr %53, align 8
  %55 = getelementptr inbounds nuw { ptr, i64 }, ptr %9, i32 0, i32 1
  %56 = extractvalue { ptr, i64 } %52, 1
  store i64 %56, ptr %55, align 8
  store ptr %9, ptr %8, align 8
  %57 = load ptr, ptr %8, align 8
  %58 = call noundef ptr @_ZNK4llvm8ArrayRefIN5clang8QualTypeEE5beginEv(ptr noundef nonnull align 8 dereferenceable(16) %57)
  store ptr %58, ptr %10, align 8
  %59 = load ptr, ptr %8, align 8
  %60 = call noundef ptr @_ZNK4llvm8ArrayRefIN5clang8QualTypeEE3endEv(ptr noundef nonnull align 8 dereferenceable(16) %59)
  store ptr %60, ptr %11, align 8
  br label %61

61:                                               ; preds = %77, %50
  %62 = load ptr, ptr %10, align 8
  %63 = load ptr, ptr %11, align 8
  %64 = icmp ne ptr %62, %63
  br i1 %64, label %65, label %80

65:                                               ; preds = %61
  %66 = load ptr, ptr %10, align 8
  call void @llvm.memcpy.p0.p0.i64(ptr align 8 %12, ptr align 8 %66, i64 8, i1 false)
  br label %67

67:                                               ; preds = %65
  %68 = call noundef nonnull align 8 dereferenceable(8) ptr @_ZN5clang19RecursiveASTVisitorIN12_GLOBAL__N_122EmptyStatementsRemoverEE10getDerivedEv(ptr noundef nonnull align 1 dereferenceable(1) %14)
  call void @llvm.memcpy.p0.p0.i64(ptr align 8 %13, ptr align 8 %12, i64 8, i1 false)
  %69 = getelementptr inbounds nuw %"class.clang::QualType", ptr %13, i32 0, i32 0
  %70 = getelementptr inbounds nuw %"class.llvm::PointerIntPair", ptr %69, i32 0, i32 0
  %71 = getelementptr inbounds nuw %"struct.llvm::detail::PunnedPointer", ptr %70, i32 0, i32 0
  %72 = load i64, ptr %71, align 8
  %73 = call noundef zeroext i1 @_ZN5clang19RecursiveASTVisitorIN12_GLOBAL__N_122EmptyStatementsRemoverEE12TraverseTypeENS_8QualTypeE(ptr noundef nonnull align 1 dereferenceable(1) %68, i64 %72)
  br i1 %73, label %75, label %74

74:                                               ; preds = %67
  store i1 false, ptr %3, align 1
  br label %92

75:                                               ; preds = %67
  br label %76

76:                                               ; preds = %75
  br label %77

77:                                               ; preds = %76
  %78 = load ptr, ptr %10, align 8
  %79 = getelementptr inbounds %"class.clang::QualType", ptr %78, i32 1
  store ptr %79, ptr %10, align 8
  br label %61

80:                                               ; preds = %61
  %81 = call noundef nonnull align 8 dereferenceable(8) ptr @_ZN5clang19RecursiveASTVisitorIN12_GLOBAL__N_122EmptyStatementsRemoverEE10getDerivedEv(ptr noundef nonnull align 1 dereferenceable(1) %14)
  %82 = call noundef zeroext i1 @_ZNK5clang19RecursiveASTVisitorIN12_GLOBAL__N_122EmptyStatementsRemoverEE23shouldTraversePostOrderEv(ptr noundef nonnull align 1 dereferenceable(1) %81)
  br i1 %82, label %83, label %91

83:                                               ; preds = %80
  br label %84

84:                                               ; preds = %83
  %85 = call noundef nonnull align 8 dereferenceable(8) ptr @_ZN5clang19RecursiveASTVisitorIN12_GLOBAL__N_122EmptyStatementsRemoverEE10getDerivedEv(ptr noundef nonnull align 1 dereferenceable(1) %14)
  %86 = load ptr, ptr %5, align 8
  %87 = call noundef zeroext i1 @_ZN5clang19RecursiveASTVisitorIN12_GLOBAL__N_122EmptyStatementsRemoverEE24WalkUpFromObjCObjectTypeEPNS_14ObjCObjectTypeE(ptr noundef nonnull align 1 dereferenceable(1) %85, ptr noundef %86)
  br i1 %87, label %89, label %88

88:                                               ; preds = %84
  store i1 false, ptr %3, align 1
  br label %92

89:                                               ; preds = %84
  br label %90

90:                                               ; preds = %89
  br label %91

91:                                               ; preds = %90, %80
  store i1 true, ptr %3, align 1
  br label %92

92:                                               ; preds = %91, %88, %74, %47, %22
  %93 = load i1, ptr %3, align 1
  ret i1 %93
}